target datalayout = "e-m:e-p270:32:32-p271:32:32-p272:64:64-i64:64-i128:128-f80:128-n8:16:32:64-S128"
target triple = "x86_64-pc-linux-gnu"

%struct._zend_refcounted_h = type { i32, %union.anon.3 }
%union.anon.3 = type { i32 }
%struct._zval_struct = type { %union._zend_value, %union.anon, %union.anon.2 }
%union._zend_value = type { i64 }
%union.anon = type { i32 }
%union.anon.2 = type { i32 }
%struct._zend_attribute = type { ptr, ptr, i32, i32, i32, i32, [1 x %struct.zend_attribute_arg] }
%struct.zend_attribute_arg = type { ptr, %struct._zval_struct }
%struct._zend_refcounted = type { %struct._zend_refcounted_h }

@.str = private unnamed_addr constant [77 x i8] c"Attribute::__construct(): Argument #1 ($flags) must be of type int, %s given\00", align 1
@.str.1 = private unnamed_addr constant [34 x i8] c"Invalid attribute flags specified\00", align 1

; Function Attrs: nounwind uwtable
define i32 @zend_get_attribute_value(ptr noundef %0, ptr noundef %1, i32 noundef %2, ptr noundef %3) #0 {
  %5 = alloca i32, align 4
  %6 = alloca i32, align 4
  %7 = alloca ptr, align 8
  %8 = alloca ptr, align 8
  %9 = alloca i32, align 4
  %10 = alloca ptr, align 8
  %11 = alloca ptr, align 8
  %12 = alloca i32, align 4
  %13 = alloca ptr, align 8
  %14 = alloca ptr, align 8
  %15 = alloca ptr, align 8
  %16 = alloca ptr, align 8
  %17 = alloca i32, align 4
  store ptr %0, ptr %10, align 8
  store ptr %1, ptr %11, align 8
  store i32 %2, ptr %12, align 4
  store ptr %3, ptr %13, align 8
  %18 = load i32, ptr %12, align 4
  %19 = load ptr, ptr %11, align 8
  %20 = getelementptr inbounds %struct._zend_attribute, ptr %19, i32 0, i32 5
  %21 = load i32, ptr %20, align 4
  %22 = icmp uge i32 %18, %21
  br i1 %22, label %23, label %24

23:                                               ; preds = %4
  store i32 -1, ptr %9, align 4
  br label %102

24:                                               ; preds = %4
  br label %25

25:                                               ; preds = %24
  %26 = load ptr, ptr %10, align 8
  store ptr %26, ptr %14, align 8
  %27 = load ptr, ptr %11, align 8
  %28 = getelementptr inbounds %struct._zend_attribute, ptr %27, i32 0, i32 6
  %29 = load i32, ptr %12, align 4
  %30 = zext i32 %29 to i64
  %31 = getelementptr inbounds [1 x %struct.zend_attribute_arg], ptr %28, i64 0, i64 %30
  %32 = getelementptr inbounds %struct.zend_attribute_arg, ptr %31, i32 0, i32 1
  store ptr %32, ptr %15, align 8
  %33 = load ptr, ptr %15, align 8
  %34 = getelementptr inbounds %struct._zval_struct, ptr %33, i32 0, i32 0
  %35 = load ptr, ptr %34, align 8
  store ptr %35, ptr %16, align 8
  %36 = load ptr, ptr %15, align 8
  %37 = getelementptr inbounds %struct._zval_struct, ptr %36, i32 0, i32 1
  %38 = load i32, ptr %37, align 8
  store i32 %38, ptr %17, align 4
  br label %39

39:                                               ; preds = %25
  %40 = load ptr, ptr %16, align 8
  %41 = load ptr, ptr %14, align 8
  %42 = getelementptr inbounds %struct._zval_struct, ptr %41, i32 0, i32 0
  store ptr %40, ptr %42, align 8
  %43 = load i32, ptr %17, align 4
  %44 = load ptr, ptr %14, align 8
  %45 = getelementptr inbounds %struct._zval_struct, ptr %44, i32 0, i32 1
  store i32 %43, ptr %45, align 8
  br label %46

46:                                               ; preds = %39
  %47 = load i32, ptr %17, align 4
  %48 = and i32 %47, 65280
  %49 = icmp ne i32 %48, 0
  br i1 %49, label %50, label %85

50:                                               ; preds = %46
  %51 = load ptr, ptr %16, align 8
  %52 = getelementptr inbounds %struct._zend_refcounted, ptr %51, i32 0, i32 0
  %53 = getelementptr inbounds %struct._zend_refcounted_h, ptr %52, i32 0, i32 1
  %54 = load i32, ptr %53, align 4
  store i32 %54, ptr %6, align 4
  %55 = load i32, ptr %6, align 4
  %56 = and i32 %55, 1008
  %57 = and i32 %56, 128
  %58 = icmp ne i32 %57, 0
  br i1 %58, label %59, label %69

59:                                               ; preds = %50
  %60 = load ptr, ptr %16, align 8
  %61 = getelementptr inbounds %struct._zend_refcounted, ptr %60, i32 0, i32 0
  %62 = getelementptr inbounds %struct._zend_refcounted_h, ptr %61, i32 0, i32 1
  %63 = load i32, ptr %62, align 4
  store i32 %63, ptr %5, align 4
  %64 = load i32, ptr %5, align 4
  %65 = and i32 %64, 15
  %66 = trunc i32 %65 to i8
  %67 = zext i8 %66 to i32
  %68 = icmp eq i32 %67, 8
  br label %69

69:                                               ; preds = %59, %50
  %70 = phi i1 [ true, %50 ], [ %68, %59 ]
  %71 = xor i1 %70, true
  %72 = xor i1 %71, true
  %73 = zext i1 %72 to i32
  %74 = sext i32 %73 to i64
  %75 = icmp ne i64 %74, 0
  br i1 %75, label %76, label %82

76:                                               ; preds = %69
  %77 = load ptr, ptr %16, align 8
  %78 = getelementptr inbounds %struct._zend_refcounted, ptr %77, i32 0, i32 0
  store ptr %78, ptr %7, align 8
  %79 = load ptr, ptr %7, align 8
  %80 = load i32, ptr %79, align 4
  %81 = add i32 %80, 1
  store i32 %81, ptr %79, align 4
  br label %84

82:                                               ; preds = %69
  %83 = load ptr, ptr %14, align 8
  call void @zval_copy_ctor_func(ptr noundef %83)
  br label %84

84:                                               ; preds = %82, %76
  br label %85

85:                                               ; preds = %84, %46
  br label %86

86:                                               ; preds = %85
  %87 = load ptr, ptr %10, align 8
  store ptr %87, ptr %8, align 8
  %88 = load ptr, ptr %8, align 8
  %89 = getelementptr inbounds %struct._zval_struct, ptr %88, i32 0, i32 1
  %90 = load i8, ptr %89, align 8
  %91 = zext i8 %90 to i32
  %92 = icmp eq i32 %91, 11
  br i1 %92, label %93, label %101

93:                                               ; preds = %86
  %94 = load ptr, ptr %10, align 8
  %95 = load ptr, ptr %13, align 8
  %96 = call i32 @zval_update_constant_ex(ptr noundef %94, ptr noundef %95)
  %97 = icmp ne i32 0, %96
  br i1 %97, label %98, label %100

98:                                               ; preds = %93
  %99 = load ptr, ptr %10, align 8
  call void @zval_ptr_dtor(ptr noundef %99)
  store i32 -1, ptr %9, align 4
  br label %102

100:                                              ; preds = %93
  br label %101

101:                                              ; preds = %100, %86
  store i32 0, ptr %9, align 4
  br label %102

102:                                              ; preds = %101, %98, %23
  %103 = load i32, ptr %9, align 4
  ret i32 %103
}

; Function Attrs: nounwind uwtable
define hidden void @validate_attribute(ptr noundef %0, i32 noundef %1, ptr noundef %2) #0 {
  %4 = alloca ptr, align 8
  %5 = alloca ptr, align 8
  %6 = alloca i32, align 4
  %7 = alloca ptr, align 8
  %8 = alloca %struct._zval_struct, align 8
  store ptr %0, ptr %5, align 8
  store i32 %1, ptr %6, align 4
  store ptr %2, ptr %7, align 8
  %9 = load ptr, ptr %5, align 8
  %10 = getelementptr inbounds %struct._zend_attribute, ptr %9, i32 0, i32 5
  %11 = load i32, ptr %10, align 4
  %12 = icmp ugt i32 %11, 0
  br i1 %12, label %13, label %33

13:                                               ; preds = %3
  %14 = load ptr, ptr %5, align 8
  %15 = call i32 @zend_get_attribute_value(ptr noundef %8, ptr noundef %14, i32 noundef 0, ptr noundef null)
  %16 = icmp eq i32 -1, %15
  br i1 %16, label %17, label %18

17:                                               ; preds = %13
  br label %33

18:                                               ; preds = %13
  store ptr %8, ptr %4, align 8
  %19 = load ptr, ptr %4, align 8
  %20 = getelementptr inbounds %struct._zval_struct, ptr %19, i32 0, i32 1
  %21 = load i8, ptr %20, align 8
  %22 = zext i8 %21 to i32
  %23 = icmp ne i32 %22, 4
  br i1 %23, label %24, label %26

24:                                               ; preds = %18
  %25 = call ptr @zend_zval_value_name(ptr noundef %8)
  call void (i32, ptr, ...) @zend_error_noreturn(i32 noundef 1, ptr noundef @.str, ptr noundef %25) #11
  unreachable

26:                                               ; preds = %18
  %27 = getelementptr inbounds %struct._zval_struct, ptr %8, i32 0, i32 0
  %28 = load i64, ptr %27, align 8
  %29 = and i64 %28, -128
  %30 = icmp ne i64 %29, 0
  br i1 %30, label %31, label %32

31:                                               ; preds = %26
  call void (i32, ptr, ...) @zend_error_noreturn(i32 noundef 1, ptr noundef @.str.1) #11
  unreachable

32:                                               ; preds = %26
  call void @zval_ptr_dtor(ptr noundef %8)
  br label %33

33:                                               ; preds = %32, %17, %3
  ret void
}