; Function Attrs: nounwind uwtable
define hidden void @validate_attribute(ptr nocapture noundef readonly %0, i32 %1, ptr nocapture readnone %2) #0 {
  %4 = alloca %struct._zval_struct, align 8
  %5 = getelementptr inbounds i8, ptr %0, i64 28
  %6 = load i32, ptr %5, align 4
  %.not = icmp eq i32 %6, 0
  br i1 %.not, label %38, label %7

7:                                                ; preds = %3
  %8 = getelementptr inbounds i8, ptr %0, i64 40
  %9 = load ptr, ptr %8, align 8
  %10 = getelementptr inbounds i8, ptr %0, i64 48
  %11 = load i32, ptr %10, align 8
  store ptr %9, ptr %4, align 8
  %12 = getelementptr inbounds i8, ptr %4, i64 8
  store i32 %11, ptr %12, align 8
  %13 = and i32 %11, 65280
  %.not25.i = icmp eq i32 %13, 0
  %14 = trunc i32 %11 to i8
  br i1 %.not25.i, label %26, label %15

15:                                               ; preds = %7
  %16 = getelementptr inbounds i8, ptr %9, i64 4
  %17 = load i32, ptr %16, align 4
  %18 = and i32 %17, 128
  %.not26.i = icmp eq i32 %18, 0
  %19 = and i32 %17, 15
  %20 = icmp eq i32 %19, 8
  %21 = or i1 %.not26.i, %20
  br i1 %21, label %22, label %25

22:                                               ; preds = %15
  %23 = load i32, ptr %9, align 4
  %24 = add i32 %23, 1
  store i32 %24, ptr %9, align 4
  br label %26

25:                                               ; preds = %15
  call void @zval_copy_ctor_func(ptr noundef nonnull %4) #16
  %.pre = load i8, ptr %12, align 8
  br label %26

26:                                               ; preds = %25, %22, %7
  %27 = phi i8 [ %.pre, %25 ], [ %14, %22 ], [ %14, %7 ]
  %28 = icmp eq i8 %27, 11
  br i1 %28, label %29, label %31

29:                                               ; preds = %26
  %30 = call i32 @zval_update_constant_ex(ptr noundef nonnull %4, ptr noundef null) #16
  %.not27.i = icmp eq i32 %30, 0
  br i1 %.not27.i, label %._crit_edge, label %.sink.split

._crit_edge:                                      ; preds = %29
  %.pre6 = load i8, ptr %12, align 8
  br label %31

31:                                               ; preds = %._crit_edge, %26
  %32 = phi i8 [ %.pre6, %._crit_edge ], [ %27, %26 ]
  %.not3 = icmp eq i8 %32, 4
  br i1 %.not3, label %35, label %33

33:                                               ; preds = %31
  %34 = call ptr @zend_zval_value_name(ptr noundef nonnull %4) #16
  call void (i32, ptr, ...) @zend_error_noreturn(i32 noundef 1, ptr noundef nonnull @.str, ptr noundef %34) #17
  unreachable

35:                                               ; preds = %31
  %36 = load i64, ptr %4, align 8
  %.not4 = icmp ult i64 %36, 128
  br i1 %.not4, label %.sink.split, label %37

37:                                               ; preds = %35
  call void (i32, ptr, ...) @zend_error_noreturn(i32 noundef 1, ptr noundef nonnull @.str.1) #17
  unreachable

.sink.split:                                      ; preds = %35, %29
  call void @zval_ptr_dtor(ptr noundef nonnull %4) #16
  br label %38

38:                                               ; preds = %.sink.split, %3
  ret void
}